target datalayout = "e-m:e-p270:32:32-p271:32:32-p272:64:64-i64:64-i128:128-f80:128-n8:16:32:64-S128"
target triple = "x86_64-pc-linux-gnu"

%struct.SN_env = type { ptr, i32, i32, i32, i32, i32, ptr, ptr }

@g_vowel = internal constant [27 x i8] c"\11A\10\00\00\00\00\00\00\00\00\00\00\00\00\00\00\00 \08\00\00\00\00\00\00\01", align 16

; Function Attrs: nounwind uwtable
define internal i32 @r_mark_suffix_with_optional_n_consonant(ptr noundef %0) #0 {
  %2 = alloca i32, align 4
  %3 = alloca ptr, align 8
  %4 = alloca i32, align 4
  %5 = alloca i32, align 4
  %6 = alloca i32, align 4
  %7 = alloca i32, align 4
  %8 = alloca i32, align 4
  %9 = alloca i32, align 4
  %10 = alloca i32, align 4
  store ptr %0, ptr %3, align 8
  call void @llvm.lifetime.start.p0(i64 4, ptr %4) #3
  %11 = load ptr, ptr %3, align 8
  %12 = getelementptr inbounds nuw %struct.SN_env, ptr %11, i32 0, i32 2
  %13 = load i32, ptr %12, align 4
  %14 = load ptr, ptr %3, align 8
  %15 = getelementptr inbounds nuw %struct.SN_env, ptr %14, i32 0, i32 1
  %16 = load i32, ptr %15, align 8
  %17 = sub i32 %13, %16
  store i32 %17, ptr %4, align 4
  %18 = load ptr, ptr %3, align 8
  %19 = getelementptr inbounds nuw %struct.SN_env, ptr %18, i32 0, i32 1
  %20 = load i32, ptr %19, align 8
  %21 = load ptr, ptr %3, align 8
  %22 = getelementptr inbounds nuw %struct.SN_env, ptr %21, i32 0, i32 3
  %23 = load i32, ptr %22, align 8
  %24 = icmp sle i32 %20, %23
  br i1 %24, label %38, label %25

25:                                               ; preds = %1
  %26 = load ptr, ptr %3, align 8
  %27 = getelementptr inbounds nuw %struct.SN_env, ptr %26, i32 0, i32 0
  %28 = load ptr, ptr %27, align 8
  %29 = load ptr, ptr %3, align 8
  %30 = getelementptr inbounds nuw %struct.SN_env, ptr %29, i32 0, i32 1
  %31 = load i32, ptr %30, align 8
  %32 = sub i32 %31, 1
  %33 = sext i32 %32 to i64
  %34 = getelementptr inbounds i8, ptr %28, i64 %33
  %35 = load i8, ptr %34, align 1
  %36 = zext i8 %35 to i32
  %37 = icmp ne i32 %36, 110
  br i1 %37, label %38, label %39

38:                                               ; preds = %25, %1
  br label %66

39:                                               ; preds = %25
  %40 = load ptr, ptr %3, align 8
  %41 = getelementptr inbounds nuw %struct.SN_env, ptr %40, i32 0, i32 1
  %42 = load i32, ptr %41, align 8
  %43 = add i32 %42, -1
  store i32 %43, ptr %41, align 8
  call void @llvm.lifetime.start.p0(i64 4, ptr %5) #3
  %44 = load ptr, ptr %3, align 8
  %45 = getelementptr inbounds nuw %struct.SN_env, ptr %44, i32 0, i32 2
  %46 = load i32, ptr %45, align 4
  %47 = load ptr, ptr %3, align 8
  %48 = getelementptr inbounds nuw %struct.SN_env, ptr %47, i32 0, i32 1
  %49 = load i32, ptr %48, align 8
  %50 = sub i32 %46, %49
  store i32 %50, ptr %5, align 4
  %51 = load ptr, ptr %3, align 8
  %52 = call i32 @in_grouping_b_U(ptr noundef %51, ptr noundef @g_vowel, i32 noundef 97, i32 noundef 305, i32 noundef 0)
  %53 = icmp ne i32 %52, 0
  br i1 %53, label %54, label %55

54:                                               ; preds = %39
  store i32 2, ptr %6, align 4
  br label %63

55:                                               ; preds = %39
  %56 = load ptr, ptr %3, align 8
  %57 = getelementptr inbounds nuw %struct.SN_env, ptr %56, i32 0, i32 2
  %58 = load i32, ptr %57, align 4
  %59 = load i32, ptr %5, align 4
  %60 = sub i32 %58, %59
  %61 = load ptr, ptr %3, align 8
  %62 = getelementptr inbounds nuw %struct.SN_env, ptr %61, i32 0, i32 1
  store i32 %60, ptr %62, align 8
  store i32 0, ptr %6, align 4
  br label %63

63:                                               ; preds = %54, %55
  call void @llvm.lifetime.end.p0(i64 4, ptr %5) #3
  %64 = load i32, ptr %6, align 4
  switch i32 %64, label %177 [
    i32 0, label %65
    i32 2, label %66
  ]

65:                                               ; preds = %63
  store i32 3, ptr %6, align 4
  br label %177

66:                                               ; preds = %63, %38
  %67 = load ptr, ptr %3, align 8
  %68 = getelementptr inbounds nuw %struct.SN_env, ptr %67, i32 0, i32 2
  %69 = load i32, ptr %68, align 4
  %70 = load i32, ptr %4, align 4
  %71 = sub i32 %69, %70
  %72 = load ptr, ptr %3, align 8
  %73 = getelementptr inbounds nuw %struct.SN_env, ptr %72, i32 0, i32 1
  store i32 %71, ptr %73, align 8
  call void @llvm.lifetime.start.p0(i64 4, ptr %7) #3
  %74 = load ptr, ptr %3, align 8
  %75 = getelementptr inbounds nuw %struct.SN_env, ptr %74, i32 0, i32 2
  %76 = load i32, ptr %75, align 4
  %77 = load ptr, ptr %3, align 8
  %78 = getelementptr inbounds nuw %struct.SN_env, ptr %77, i32 0, i32 1
  %79 = load i32, ptr %78, align 8
  %80 = sub i32 %76, %79
  store i32 %80, ptr %7, align 4
  call void @llvm.lifetime.start.p0(i64 4, ptr %8) #3
  %81 = load ptr, ptr %3, align 8
  %82 = getelementptr inbounds nuw %struct.SN_env, ptr %81, i32 0, i32 2
  %83 = load i32, ptr %82, align 4
  %84 = load ptr, ptr %3, align 8
  %85 = getelementptr inbounds nuw %struct.SN_env, ptr %84, i32 0, i32 1
  %86 = load i32, ptr %85, align 8
  %87 = sub i32 %83, %86
  store i32 %87, ptr %8, align 4
  %88 = load ptr, ptr %3, align 8
  %89 = getelementptr inbounds nuw %struct.SN_env, ptr %88, i32 0, i32 1
  %90 = load i32, ptr %89, align 8
  %91 = load ptr, ptr %3, align 8
  %92 = getelementptr inbounds nuw %struct.SN_env, ptr %91, i32 0, i32 3
  %93 = load i32, ptr %92, align 8
  %94 = icmp sle i32 %90, %93
  br i1 %94, label %108, label %95

95:                                               ; preds = %66
  %96 = load ptr, ptr %3, align 8
  %97 = getelementptr inbounds nuw %struct.SN_env, ptr %96, i32 0, i32 0
  %98 = load ptr, ptr %97, align 8
  %99 = load ptr, ptr %3, align 8
  %100 = getelementptr inbounds nuw %struct.SN_env, ptr %99, i32 0, i32 1
  %101 = load i32, ptr %100, align 8
  %102 = sub i32 %101, 1
  %103 = sext i32 %102 to i64
  %104 = getelementptr inbounds i8, ptr %98, i64 %103
  %105 = load i8, ptr %104, align 1
  %106 = zext i8 %105 to i32
  %107 = icmp ne i32 %106, 110
  br i1 %107, label %108, label %109

108:                                              ; preds = %95, %66
  store i32 4, ptr %6, align 4
  br label %121

109:                                              ; preds = %95
  %110 = load ptr, ptr %3, align 8
  %111 = getelementptr inbounds nuw %struct.SN_env, ptr %110, i32 0, i32 1
  %112 = load i32, ptr %111, align 8
  %113 = add i32 %112, -1
  store i32 %113, ptr %111, align 8
  %114 = load ptr, ptr %3, align 8
  %115 = getelementptr inbounds nuw %struct.SN_env, ptr %114, i32 0, i32 2
  %116 = load i32, ptr %115, align 4
  %117 = load i32, ptr %8, align 4
  %118 = sub i32 %116, %117
  %119 = load ptr, ptr %3, align 8
  %120 = getelementptr inbounds nuw %struct.SN_env, ptr %119, i32 0, i32 1
  store i32 %118, ptr %120, align 8
  store i32 0, ptr %6, align 4
  br label %121

121:                                              ; preds = %108, %109
  call void @llvm.lifetime.end.p0(i64 4, ptr %8) #3
  %122 = load i32, ptr %6, align 4
  switch i32 %122, label %132 [
    i32 0, label %123
    i32 4, label %124
  ]

123:                                              ; preds = %121
  store i32 0, ptr %2, align 4
  store i32 1, ptr %6, align 4
  br label %132

124:                                              ; preds = %121
  %125 = load ptr, ptr %3, align 8
  %126 = getelementptr inbounds nuw %struct.SN_env, ptr %125, i32 0, i32 2
  %127 = load i32, ptr %126, align 4
  %128 = load i32, ptr %7, align 4
  %129 = sub i32 %127, %128
  %130 = load ptr, ptr %3, align 8
  %131 = getelementptr inbounds nuw %struct.SN_env, ptr %130, i32 0, i32 1
  store i32 %129, ptr %131, align 8
  store i32 0, ptr %6, align 4
  br label %132

132:                                              ; preds = %124, %123, %121
  call void @llvm.lifetime.end.p0(i64 4, ptr %7) #3
  %133 = load i32, ptr %6, align 4
  switch i32 %133, label %177 [
    i32 0, label %134
  ]

134:                                              ; preds = %132
  call void @llvm.lifetime.start.p0(i64 4, ptr %9) #3
  %135 = load ptr, ptr %3, align 8
  %136 = getelementptr inbounds nuw %struct.SN_env, ptr %135, i32 0, i32 2
  %137 = load i32, ptr %136, align 4
  %138 = load ptr, ptr %3, align 8
  %139 = getelementptr inbounds nuw %struct.SN_env, ptr %138, i32 0, i32 1
  %140 = load i32, ptr %139, align 8
  %141 = sub i32 %137, %140
  store i32 %141, ptr %9, align 4
  call void @llvm.lifetime.start.p0(i64 4, ptr %10) #3
  %142 = load ptr, ptr %3, align 8
  %143 = getelementptr inbounds nuw %struct.SN_env, ptr %142, i32 0, i32 0
  %144 = load ptr, ptr %143, align 8
  %145 = load ptr, ptr %3, align 8
  %146 = getelementptr inbounds nuw %struct.SN_env, ptr %145, i32 0, i32 1
  %147 = load i32, ptr %146, align 8
  %148 = load ptr, ptr %3, align 8
  %149 = getelementptr inbounds nuw %struct.SN_env, ptr %148, i32 0, i32 3
  %150 = load i32, ptr %149, align 8
  %151 = call i32 @skip_b_utf8(ptr noundef %144, i32 noundef %147, i32 noundef %150, i32 noundef 1)
  store i32 %151, ptr %10, align 4
  %152 = load i32, ptr %10, align 4
  %153 = icmp slt i32 %152, 0
  br i1 %153, label %154, label %155

154:                                              ; preds = %134
  store i32 0, ptr %2, align 4
  store i32 1, ptr %6, align 4
  br label %159

155:                                              ; preds = %134
  %156 = load i32, ptr %10, align 4
  %157 = load ptr, ptr %3, align 8
  %158 = getelementptr inbounds nuw %struct.SN_env, ptr %157, i32 0, i32 1
  store i32 %156, ptr %158, align 8
  store i32 0, ptr %6, align 4
  br label %159

159:                                              ; preds = %155, %154
  call void @llvm.lifetime.end.p0(i64 4, ptr %10) #3
  %160 = load i32, ptr %6, align 4
  switch i32 %160, label %174 [
    i32 0, label %161
  ]

161:                                              ; preds = %159
  %162 = load ptr, ptr %3, align 8
  %163 = call i32 @in_grouping_b_U(ptr noundef %162, ptr noundef @g_vowel, i32 noundef 97, i32 noundef 305, i32 noundef 0)
  %164 = icmp ne i32 %163, 0
  br i1 %164, label %165, label %166

165:                                              ; preds = %161
  store i32 0, ptr %2, align 4
  store i32 1, ptr %6, align 4
  br label %174

166:                                              ; preds = %161
  %167 = load ptr, ptr %3, align 8
  %168 = getelementptr inbounds nuw %struct.SN_env, ptr %167, i32 0, i32 2
  %169 = load i32, ptr %168, align 4
  %170 = load i32, ptr %9, align 4
  %171 = sub i32 %169, %170
  %172 = load ptr, ptr %3, align 8
  %173 = getelementptr inbounds nuw %struct.SN_env, ptr %172, i32 0, i32 1
  store i32 %171, ptr %173, align 8
  store i32 0, ptr %6, align 4
  br label %174

174:                                              ; preds = %166, %165, %159
  call void @llvm.lifetime.end.p0(i64 4, ptr %9) #3
  %175 = load i32, ptr %6, align 4
  switch i32 %175, label %177 [
    i32 0, label %176
  ]

176:                                              ; preds = %174
  store i32 0, ptr %6, align 4
  br label %177

177:                                              ; preds = %65, %176, %174, %132, %63
  call void @llvm.lifetime.end.p0(i64 4, ptr %4) #3
  %178 = load i32, ptr %6, align 4
  switch i32 %178, label %183 [
    i32 0, label %179
    i32 1, label %181
    i32 3, label %180
  ]

179:                                              ; preds = %177
  br label %180

180:                                              ; preds = %179, %177
  store i32 1, ptr %2, align 4
  br label %181

181:                                              ; preds = %180, %177
  %182 = load i32, ptr %2, align 4
  ret i32 %182

183:                                              ; preds = %177
  unreachable
}